(dp0
S'scale'
p1
I1
sS'center'
p2
(dp3
S'lat'
p4
F41.8727585
sS'lon'
p5
F-87.663523
ssS'url'
p6
S'google'
p7
sS'zoom'
p8
I14
sS'bbox'
p9
(dp10
S'upper_right'
p11
(lp12
sS'low_left'
p13
(lp14
ssS'size'
p15
(dp16
S'width'
p17
I640
sS'height'
p18
I640
ss.